target datalayout = "e-m:e-p270:32:32-p271:32:32-p272:64:64-i64:64-i128:128-f80:128-n8:16:32:64-S128"
target triple = "x86_64-pc-linux-gnu"

%struct.AVProbeData = type { ptr, ptr, i32, ptr }

; Function Attrs: nounwind uwtable
define internal i32 @cin_probe(ptr noundef %0) #0 {
  %2 = alloca i32, align 4
  %3 = alloca ptr, align 8
  store ptr %0, ptr %3, align 8, !tbaa !4
  %4 = load ptr, ptr %3, align 8, !tbaa !4
  %5 = getelementptr inbounds nuw %struct.AVProbeData, ptr %4, i32 0, i32 1
  %6 = load ptr, ptr %5, align 8, !tbaa !9
  %7 = getelementptr inbounds i8, ptr %6, i64 0
  %8 = load i32, ptr %7, align 1, !tbaa !13
  %9 = icmp ne i32 %8, 1437204480
  br i1 %9, label %10, label %11

10:                                               ; preds = %1
  store i32 0, ptr %2, align 4
  br label %36

11:                                               ; preds = %1
  %12 = load ptr, ptr %3, align 8, !tbaa !4
  %13 = getelementptr inbounds nuw %struct.AVProbeData, ptr %12, i32 0, i32 1
  %14 = load ptr, ptr %13, align 8, !tbaa !9
  %15 = getelementptr inbounds i8, ptr %14, i64 12
  %16 = load i32, ptr %15, align 1, !tbaa !13
  %17 = icmp ne i32 %16, 22050
  br i1 %17, label %34, label %18

18:                                               ; preds = %11
  %19 = load ptr, ptr %3, align 8, !tbaa !4
  %20 = getelementptr inbounds nuw %struct.AVProbeData, ptr %19, i32 0, i32 1
  %21 = load ptr, ptr %20, align 8, !tbaa !9
  %22 = getelementptr inbounds i8, ptr %21, i64 16
  %23 = load i8, ptr %22, align 1, !tbaa !13
  %24 = zext i8 %23 to i32
  %25 = icmp ne i32 %24, 16
  br i1 %25, label %34, label %26

26:                                               ; preds = %18
  %27 = load ptr, ptr %3, align 8, !tbaa !4
  %28 = getelementptr inbounds nuw %struct.AVProbeData, ptr %27, i32 0, i32 1
  %29 = load ptr, ptr %28, align 8, !tbaa !9
  %30 = getelementptr inbounds i8, ptr %29, i64 17
  %31 = load i8, ptr %30, align 1, !tbaa !13
  %32 = zext i8 %31 to i32
  %33 = icmp ne i32 %32, 0
  br i1 %33, label %34, label %35

34:                                               ; preds = %26, %18, %11
  store i32 0, ptr %2, align 4
  br label %36

35:                                               ; preds = %26
  store i32 100, ptr %2, align 4
  br label %36

36:                                               ; preds = %35, %34, %10
  %37 = load i32, ptr %2, align 4
  ret i32 %37
}